target datalayout = "e-m:e-p270:32:32-p271:32:32-p272:64:64-i64:64-i128:128-f80:128-n8:16:32:64-S128"
target triple = "x86_64-pc-linux-gnu"

%struct.ident_t = type { i32, i32, i32, i32, ptr }
%class.anon.175 = type { ptr, ptr, ptr }

@1 = private unnamed_addr constant %struct.ident_t { i32 0, i32 514, i32 0, i32 22, ptr @0 }, align 8

; Function Attrs: inlinehint mustprogress nounwind ssp uwtable
define linkonce_odr hidden noundef double @_ZN6open3d4core6linalg6kernel7dot_3x1IdEET_PKS4_S6_(ptr noundef %0, ptr noundef %1) #4 comdat {
  %3 = alloca ptr, align 8
  %4 = alloca ptr, align 8
  store ptr %0, ptr %3, align 8, !tbaa !62
  store ptr %1, ptr %4, align 8, !tbaa !62
  %5 = load ptr, ptr %3, align 8, !tbaa !62
  %6 = getelementptr inbounds double, ptr %5, i64 0
  %7 = load double, ptr %6, align 8, !tbaa !64
  %8 = load ptr, ptr %4, align 8, !tbaa !62
  %9 = getelementptr inbounds double, ptr %8, i64 0
  %10 = load double, ptr %9, align 8, !tbaa !64
  %11 = load ptr, ptr %3, align 8, !tbaa !62
  %12 = getelementptr inbounds double, ptr %11, i64 1
  %13 = load double, ptr %12, align 8, !tbaa !64
  %14 = load ptr, ptr %4, align 8, !tbaa !62
  %15 = getelementptr inbounds double, ptr %14, i64 1
  %16 = load double, ptr %15, align 8, !tbaa !64
  %17 = fmul double %13, %16
  %18 = call double @llvm.fmuladd.f64(double %7, double %10, double %17)
  %19 = load ptr, ptr %3, align 8, !tbaa !62
  %20 = getelementptr inbounds double, ptr %19, i64 2
  %21 = load double, ptr %20, align 8, !tbaa !64
  %22 = load ptr, ptr %4, align 8, !tbaa !62
  %23 = getelementptr inbounds double, ptr %22, i64 2
  %24 = load double, ptr %23, align 8, !tbaa !64
  %25 = call double @llvm.fmuladd.f64(double %21, double %24, double %18)
  ret double %25
}

; Function Attrs: noinline noreturn nounwind ssp uwtable
define linkonce_odr hidden void @__clang_call_terminate(ptr noundef %0) #13 comdat {
  %2 = call ptr @__cxa_begin_catch(ptr %0) #27
  call void @_ZSt9terminatev() #31
  unreachable
}

; Function Attrs: inlinehint mustprogress nounwind ssp uwtable
define internal void @"_ZZZZN6open3d1t8geometry6kernel10pointcloud37OrientNormalsTowardsCameraLocationCPUERKNS_4core6TensorERS5_S7_ENK3$_0clEvENKUlvE0_clEvENKUllE_clEl"(ptr noundef nonnull align 8 dereferenceable(24) %0, i64 noundef %1) #4 align 2 {
  %3 = alloca ptr, align 8
  %4 = alloca i64, align 8
  %5 = alloca i64, align 8
  %6 = alloca ptr, align 8
  %7 = alloca ptr, align 8
  %8 = alloca [3 x double], align 16
  %9 = alloca double, align 8
  %10 = alloca double, align 8
  store ptr %0, ptr %3, align 8, !tbaa !32
  store i64 %1, ptr %4, align 8, !tbaa !15
  %11 = load ptr, ptr %3, align 8
  call void @llvm.lifetime.start.p0(i64 8, ptr %5) #27
  %12 = load i64, ptr %4, align 8, !tbaa !15
  %13 = mul nsw i64 3, %12
  store i64 %13, ptr %5, align 8, !tbaa !15
  call void @llvm.lifetime.start.p0(i64 8, ptr %6) #27
  %14 = getelementptr inbounds nuw %class.anon.175, ptr %11, i32 0, i32 0
  %15 = load ptr, ptr %14, align 8, !tbaa !1241
  %16 = load i64, ptr %5, align 8, !tbaa !15
  %17 = getelementptr inbounds double, ptr %15, i64 %16
  store ptr %17, ptr %6, align 8, !tbaa !62
  call void @llvm.lifetime.start.p0(i64 8, ptr %7) #27
  %18 = getelementptr inbounds nuw %class.anon.175, ptr %11, i32 0, i32 1
  %19 = load ptr, ptr %18, align 8, !tbaa !1243
  %20 = load i64, ptr %5, align 8, !tbaa !15
  %21 = getelementptr inbounds double, ptr %19, i64 %20
  store ptr %21, ptr %7, align 8, !tbaa !62
  call void @llvm.lifetime.start.p0(i64 24, ptr %8) #27
  %22 = getelementptr inbounds nuw %class.anon.175, ptr %11, i32 0, i32 2
  %23 = load ptr, ptr %22, align 8, !tbaa !1244
  %24 = getelementptr inbounds double, ptr %23, i64 0
  %25 = load double, ptr %24, align 8, !tbaa !64
  %26 = load ptr, ptr %7, align 8, !tbaa !62
  %27 = getelementptr inbounds double, ptr %26, i64 0
  %28 = load double, ptr %27, align 8, !tbaa !64
  %29 = fsub double %25, %28
  store double %29, ptr %8, align 8, !tbaa !64
  %30 = getelementptr inbounds double, ptr %8, i64 1
  %31 = getelementptr inbounds nuw %class.anon.175, ptr %11, i32 0, i32 2
  %32 = load ptr, ptr %31, align 8, !tbaa !1244
  %33 = getelementptr inbounds double, ptr %32, i64 1
  %34 = load double, ptr %33, align 8, !tbaa !64
  %35 = load ptr, ptr %7, align 8, !tbaa !62
  %36 = getelementptr inbounds double, ptr %35, i64 1
  %37 = load double, ptr %36, align 8, !tbaa !64
  %38 = fsub double %34, %37
  store double %38, ptr %30, align 8, !tbaa !64
  %39 = getelementptr inbounds double, ptr %8, i64 2
  %40 = getelementptr inbounds nuw %class.anon.175, ptr %11, i32 0, i32 2
  %41 = load ptr, ptr %40, align 8, !tbaa !1244
  %42 = getelementptr inbounds double, ptr %41, i64 2
  %43 = load double, ptr %42, align 8, !tbaa !64
  %44 = load ptr, ptr %7, align 8, !tbaa !62
  %45 = getelementptr inbounds double, ptr %44, i64 2
  %46 = load double, ptr %45, align 8, !tbaa !64
  %47 = fsub double %43, %46
  store double %47, ptr %39, align 8, !tbaa !64
  call void @llvm.lifetime.start.p0(i64 8, ptr %9) #27
  %48 = load ptr, ptr %6, align 8, !tbaa !62
  %49 = getelementptr inbounds double, ptr %48, i64 0
  %50 = load double, ptr %49, align 8, !tbaa !64
  %51 = load ptr, ptr %6, align 8, !tbaa !62
  %52 = getelementptr inbounds double, ptr %51, i64 0
  %53 = load double, ptr %52, align 8, !tbaa !64
  %54 = load ptr, ptr %6, align 8, !tbaa !62
  %55 = getelementptr inbounds double, ptr %54, i64 1
  %56 = load double, ptr %55, align 8, !tbaa !64
  %57 = load ptr, ptr %6, align 8, !tbaa !62
  %58 = getelementptr inbounds double, ptr %57, i64 1
  %59 = load double, ptr %58, align 8, !tbaa !64
  %60 = fmul double %56, %59
  %61 = call double @llvm.fmuladd.f64(double %50, double %53, double %60)
  %62 = load ptr, ptr %6, align 8, !tbaa !62
  %63 = getelementptr inbounds double, ptr %62, i64 2
  %64 = load double, ptr %63, align 8, !tbaa !64
  %65 = load ptr, ptr %6, align 8, !tbaa !62
  %66 = getelementptr inbounds double, ptr %65, i64 2
  %67 = load double, ptr %66, align 8, !tbaa !64
  %68 = call double @llvm.fmuladd.f64(double %64, double %67, double %61)
  %69 = call double @sqrt(double noundef %68) #27, !tbaa !47
  store double %69, ptr %9, align 8, !tbaa !64
  %70 = load double, ptr %9, align 8, !tbaa !64
  %71 = fcmp oeq double %70, 0.000000e+00
  br i1 %71, label %72, label %133

72:                                               ; preds = %2
  %73 = getelementptr inbounds [3 x double], ptr %8, i64 0, i64 0
  %74 = load double, ptr %73, align 16, !tbaa !64
  %75 = load ptr, ptr %6, align 8, !tbaa !62
  %76 = getelementptr inbounds double, ptr %75, i64 0
  store double %74, ptr %76, align 8, !tbaa !64
  %77 = getelementptr inbounds [3 x double], ptr %8, i64 0, i64 1
  %78 = load double, ptr %77, align 8, !tbaa !64
  %79 = load ptr, ptr %6, align 8, !tbaa !62
  %80 = getelementptr inbounds double, ptr %79, i64 1
  store double %78, ptr %80, align 8, !tbaa !64
  %81 = getelementptr inbounds [3 x double], ptr %8, i64 0, i64 2
  %82 = load double, ptr %81, align 16, !tbaa !64
  %83 = load ptr, ptr %6, align 8, !tbaa !62
  %84 = getelementptr inbounds double, ptr %83, i64 2
  store double %82, ptr %84, align 8, !tbaa !64
  call void @llvm.lifetime.start.p0(i64 8, ptr %10) #27
  %85 = load ptr, ptr %6, align 8, !tbaa !62
  %86 = getelementptr inbounds double, ptr %85, i64 0
  %87 = load double, ptr %86, align 8, !tbaa !64
  %88 = load ptr, ptr %6, align 8, !tbaa !62
  %89 = getelementptr inbounds double, ptr %88, i64 0
  %90 = load double, ptr %89, align 8, !tbaa !64
  %91 = load ptr, ptr %6, align 8, !tbaa !62
  %92 = getelementptr inbounds double, ptr %91, i64 1
  %93 = load double, ptr %92, align 8, !tbaa !64
  %94 = load ptr, ptr %6, align 8, !tbaa !62
  %95 = getelementptr inbounds double, ptr %94, i64 1
  %96 = load double, ptr %95, align 8, !tbaa !64
  %97 = fmul double %93, %96
  %98 = call double @llvm.fmuladd.f64(double %87, double %90, double %97)
  %99 = load ptr, ptr %6, align 8, !tbaa !62
  %100 = getelementptr inbounds double, ptr %99, i64 2
  %101 = load double, ptr %100, align 8, !tbaa !64
  %102 = load ptr, ptr %6, align 8, !tbaa !62
  %103 = getelementptr inbounds double, ptr %102, i64 2
  %104 = load double, ptr %103, align 8, !tbaa !64
  %105 = call double @llvm.fmuladd.f64(double %101, double %104, double %98)
  %106 = call double @sqrt(double noundef %105) #27, !tbaa !47
  store double %106, ptr %10, align 8, !tbaa !64
  %107 = load double, ptr %10, align 8, !tbaa !64
  %108 = fcmp oeq double %107, 0.000000e+00
  br i1 %108, label %109, label %116

109:                                              ; preds = %72
  %110 = load ptr, ptr %6, align 8, !tbaa !62
  %111 = getelementptr inbounds double, ptr %110, i64 0
  store double 0.000000e+00, ptr %111, align 8, !tbaa !64
  %112 = load ptr, ptr %6, align 8, !tbaa !62
  %113 = getelementptr inbounds double, ptr %112, i64 1
  store double 0.000000e+00, ptr %113, align 8, !tbaa !64
  %114 = load ptr, ptr %6, align 8, !tbaa !62
  %115 = getelementptr inbounds double, ptr %114, i64 2
  store double 1.000000e+00, ptr %115, align 8, !tbaa !64
  br label %132

116:                                              ; preds = %72
  %117 = load double, ptr %10, align 8, !tbaa !64
  %118 = load ptr, ptr %6, align 8, !tbaa !62
  %119 = getelementptr inbounds double, ptr %118, i64 0
  %120 = load double, ptr %119, align 8, !tbaa !64
  %121 = fdiv double %120, %117
  store double %121, ptr %119, align 8, !tbaa !64
  %122 = load double, ptr %10, align 8, !tbaa !64
  %123 = load ptr, ptr %6, align 8, !tbaa !62
  %124 = getelementptr inbounds double, ptr %123, i64 1
  %125 = load double, ptr %124, align 8, !tbaa !64
  %126 = fdiv double %125, %122
  store double %126, ptr %124, align 8, !tbaa !64
  %127 = load double, ptr %10, align 8, !tbaa !64
  %128 = load ptr, ptr %6, align 8, !tbaa !62
  %129 = getelementptr inbounds double, ptr %128, i64 2
  %130 = load double, ptr %129, align 8, !tbaa !64
  %131 = fdiv double %130, %127
  store double %131, ptr %129, align 8, !tbaa !64
  br label %132

132:                                              ; preds = %116, %109
  call void @llvm.lifetime.end.p0(i64 8, ptr %10) #27
  br label %152

133:                                              ; preds = %2
  %134 = load ptr, ptr %6, align 8, !tbaa !62
  %135 = getelementptr inbounds [3 x double], ptr %8, i64 0, i64 0
  %136 = call noundef double @_ZN6open3d4core6linalg6kernel7dot_3x1IdEET_PKS4_S6_(ptr noundef %134, ptr noundef %135)
  %137 = fcmp olt double %136, 0.000000e+00
  br i1 %137, label %138, label %151

138:                                              ; preds = %133
  %139 = load ptr, ptr %6, align 8, !tbaa !62
  %140 = getelementptr inbounds double, ptr %139, i64 0
  %141 = load double, ptr %140, align 8, !tbaa !64
  %142 = fmul double %141, -1.000000e+00
  store double %142, ptr %140, align 8, !tbaa !64
  %143 = load ptr, ptr %6, align 8, !tbaa !62
  %144 = getelementptr inbounds double, ptr %143, i64 1
  %145 = load double, ptr %144, align 8, !tbaa !64
  %146 = fmul double %145, -1.000000e+00
  store double %146, ptr %144, align 8, !tbaa !64
  %147 = load ptr, ptr %6, align 8, !tbaa !62
  %148 = getelementptr inbounds double, ptr %147, i64 2
  %149 = load double, ptr %148, align 8, !tbaa !64
  %150 = fmul double %149, -1.000000e+00
  store double %150, ptr %148, align 8, !tbaa !64
  br label %151

151:                                              ; preds = %138, %133
  br label %152

152:                                              ; preds = %151, %132
  call void @llvm.lifetime.end.p0(i64 8, ptr %9) #27
  call void @llvm.lifetime.end.p0(i64 24, ptr %8) #27
  call void @llvm.lifetime.end.p0(i64 8, ptr %7) #27
  call void @llvm.lifetime.end.p0(i64 8, ptr %6) #27
  call void @llvm.lifetime.end.p0(i64 8, ptr %5) #27
  ret void
}

; Function Attrs: alwaysinline norecurse nounwind ssp uwtable
define internal void @"_ZN6open3d4core15ParallelForCPU_IZZZNS_1t8geometry6kernel10pointcloud37OrientNormalsTowardsCameraLocationCPUERKNS0_6TensorERS6_S8_ENK3$_0clEvENKUlvE0_clEvEUllE_EEvRKNS0_6DeviceElRKT_.omp_outlined"(ptr noalias noundef %0, ptr noalias noundef %1, ptr noundef nonnull align 8 dereferenceable(8) %2, ptr noundef nonnull align 8 dereferenceable(24) %3) #26 personality ptr @__gxx_personality_v0 {
  %5 = alloca ptr, align 8
  %6 = alloca ptr, align 8
  %7 = alloca ptr, align 8
  %8 = alloca ptr, align 8
  %9 = alloca ptr, align 8
  %10 = alloca i64, align 8
  %11 = alloca i64, align 8
  %12 = alloca i64, align 8
  %13 = alloca i64, align 8
  %14 = alloca i64, align 8
  %15 = alloca i64, align 8
  %16 = alloca i64, align 8
  %17 = alloca i32, align 4
  %18 = alloca i64, align 8
  store ptr %0, ptr %5, align 8, !tbaa !276
  store ptr %1, ptr %6, align 8, !tbaa !276
  store ptr %2, ptr %7, align 8, !tbaa !35
  store ptr %3, ptr %8, align 8, !tbaa !32
  %19 = load ptr, ptr %7, align 8, !tbaa !35
  %20 = load ptr, ptr %8, align 8, !tbaa !32
  store ptr %20, ptr %9, align 8
  call void @llvm.lifetime.start.p0(i64 8, ptr %10) #27
  call void @llvm.lifetime.start.p0(i64 8, ptr %11) #27
  %21 = load i64, ptr %19, align 8, !tbaa !15
  store i64 %21, ptr %11, align 8, !tbaa !15
  call void @llvm.lifetime.start.p0(i64 8, ptr %12) #27
  %22 = load i64, ptr %11, align 8, !tbaa !15
  %23 = sub nsw i64 %22, 0
  %24 = sdiv i64 %23, 1
  %25 = sub nsw i64 %24, 1
  store i64 %25, ptr %12, align 8, !tbaa !15
  call void @llvm.lifetime.start.p0(i64 8, ptr %13) #27
  store i64 0, ptr %13, align 8, !tbaa !15
  call void @llvm.lifetime.end.p0(i64 8, ptr %13) #27
  %26 = load i64, ptr %11, align 8, !tbaa !15
  %27 = icmp slt i64 0, %26
  br i1 %27, label %28, label %62

28:                                               ; preds = %4
  call void @llvm.lifetime.start.p0(i64 8, ptr %14) #27
  store i64 0, ptr %14, align 8, !tbaa !15
  call void @llvm.lifetime.start.p0(i64 8, ptr %15) #27
  %29 = load i64, ptr %12, align 8, !tbaa !15
  store i64 %29, ptr %15, align 8, !tbaa !15
  call void @llvm.lifetime.start.p0(i64 8, ptr %16) #27
  store i64 1, ptr %16, align 8, !tbaa !15
  call void @llvm.lifetime.start.p0(i64 4, ptr %17) #27
  store i32 0, ptr %17, align 4, !tbaa !47
  call void @llvm.lifetime.start.p0(i64 8, ptr %18) #27
  %30 = load ptr, ptr %5, align 8
  %31 = load i32, ptr %30, align 4, !tbaa !47
  call void @__kmpc_for_static_init_8(ptr @1, i32 %31, i32 34, ptr %17, ptr %14, ptr %15, ptr %16, i64 1, i64 1)
  %32 = load i64, ptr %15, align 8, !tbaa !15
  %33 = load i64, ptr %12, align 8, !tbaa !15
  %34 = icmp sgt i64 %32, %33
  br i1 %34, label %35, label %37

35:                                               ; preds = %28
  %36 = load i64, ptr %12, align 8, !tbaa !15
  br label %39

37:                                               ; preds = %28
  %38 = load i64, ptr %15, align 8, !tbaa !15
  br label %39

39:                                               ; preds = %37, %35
  %40 = phi i64 [ %36, %35 ], [ %38, %37 ]
  store i64 %40, ptr %15, align 8, !tbaa !15
  %41 = load i64, ptr %14, align 8, !tbaa !15
  store i64 %41, ptr %10, align 8, !tbaa !15
  br label %42

42:                                               ; preds = %55, %39
  %43 = load i64, ptr %10, align 8, !tbaa !15
  %44 = load i64, ptr %15, align 8, !tbaa !15
  %45 = icmp sle i64 %43, %44
  br i1 %45, label %47, label %46

46:                                               ; preds = %42
  br label %58

47:                                               ; preds = %42
  %48 = load i64, ptr %10, align 8, !tbaa !15
  %49 = mul nsw i64 %48, 1
  %50 = add nsw i64 0, %49
  store i64 %50, ptr %18, align 8, !tbaa !15
  %51 = load ptr, ptr %9, align 8, !tbaa !32
  %52 = load i64, ptr %18, align 8, !tbaa !15
  invoke void @"_ZZZZN6open3d1t8geometry6kernel10pointcloud37OrientNormalsTowardsCameraLocationCPUERKNS_4core6TensorERS5_S7_ENK3$_0clEvENKUlvE0_clEvENKUllE_clEl"(ptr noundef nonnull align 8 dereferenceable(24) %51, i64 noundef %52)
          to label %53 unwind label %63

53:                                               ; preds = %47
  br label %54

54:                                               ; preds = %53
  br label %55

55:                                               ; preds = %54
  %56 = load i64, ptr %10, align 8, !tbaa !15
  %57 = add nsw i64 %56, 1
  store i64 %57, ptr %10, align 8, !tbaa !15
  br label %42

58:                                               ; preds = %46
  br label %59

59:                                               ; preds = %58
  %60 = load ptr, ptr %5, align 8
  %61 = load i32, ptr %60, align 4, !tbaa !47
  call void @__kmpc_for_static_fini(ptr @1, i32 %61)
  call void @llvm.lifetime.end.p0(i64 8, ptr %18) #27
  call void @llvm.lifetime.end.p0(i64 4, ptr %17) #27
  call void @llvm.lifetime.end.p0(i64 8, ptr %16) #27
  call void @llvm.lifetime.end.p0(i64 8, ptr %15) #27
  call void @llvm.lifetime.end.p0(i64 8, ptr %14) #27
  br label %62

62:                                               ; preds = %59, %4
  call void @llvm.lifetime.end.p0(i64 8, ptr %12) #27
  call void @llvm.lifetime.end.p0(i64 8, ptr %11) #27
  call void @llvm.lifetime.end.p0(i64 8, ptr %10) #27
  ret void

63:                                               ; preds = %47
  %64 = landingpad { ptr, i32 }
          catch ptr null
  %65 = extractvalue { ptr, i32 } %64, 0
  call void @__clang_call_terminate(ptr %65) #31
  unreachable
}