; Function Attrs: alwaysinline norecurse nounwind ssp uwtable
define internal void @"_ZN6open3d4core15ParallelForCPU_IZZZNS_1t8geometry6kernel10pointcloud37OrientNormalsTowardsCameraLocationCPUERKNS0_6TensorERS6_S8_ENK3$_0clEvENKUlvE0_clEvEUllE_EEvRKNS0_6DeviceElRKT_.omp_outlined"(ptr noalias noundef readonly captures(none) %0, ptr noalias readnone captures(none) %1, ptr noundef nonnull readonly align 8 captures(none) dereferenceable(8) %2, ptr noundef nonnull readonly align 8 captures(none) dereferenceable(24) %3) #25 personality ptr @__gxx_personality_v0 {
  %5 = alloca i64, align 8
  %6 = alloca i64, align 8
  %7 = alloca i64, align 8
  %8 = alloca i32, align 4
  %9 = load i64, ptr %2, align 8, !tbaa !8
  %10 = icmp sgt i64 %9, 0
  br i1 %10, label %11, label %66

11:                                               ; preds = %4
  %12 = add nsw i64 %9, -1
  call void @llvm.lifetime.start.p0(i64 8, ptr nonnull %5) #26
  store i64 0, ptr %5, align 8, !tbaa !8
  call void @llvm.lifetime.start.p0(i64 8, ptr nonnull %6) #26
  store i64 %12, ptr %6, align 8, !tbaa !8
  call void @llvm.lifetime.start.p0(i64 8, ptr nonnull %7) #26
  store i64 1, ptr %7, align 8, !tbaa !8
  call void @llvm.lifetime.start.p0(i64 4, ptr nonnull %8) #26
  store i32 0, ptr %8, align 4, !tbaa !34
  %13 = load i32, ptr %0, align 4, !tbaa !34
  call void @__kmpc_for_static_init_8(ptr nonnull @1, i32 %13, i32 34, ptr nonnull %8, ptr nonnull %5, ptr nonnull %6, ptr nonnull %7, i64 1, i64 1)
  %14 = load i64, ptr %6, align 8, !tbaa !8
  %15 = call i64 @llvm.smin.i64(i64 %14, i64 %12)
  store i64 %15, ptr %6, align 8, !tbaa !8
  %16 = load i64, ptr %5, align 8, !tbaa !8
  %.not13 = icmp sgt i64 %16, %15
  br i1 %.not13, label %._crit_edge, label %.lr.ph

.lr.ph:                                           ; preds = %11
  %17 = load ptr, ptr %3, align 8, !tbaa !882
  %18 = getelementptr inbounds nuw i8, ptr %3, i64 8
  %19 = load ptr, ptr %18, align 8, !tbaa !884
  %20 = getelementptr inbounds nuw i8, ptr %3, i64 16
  %21 = load ptr, ptr %20, align 8, !tbaa !885
  %22 = getelementptr inbounds nuw i8, ptr %21, i64 8
  %23 = getelementptr inbounds nuw i8, ptr %21, i64 16
  br label %24

24:                                               ; preds = %.lr.ph, %"_ZZZZN6open3d1t8geometry6kernel10pointcloud37OrientNormalsTowardsCameraLocationCPUERKNS_4core6TensorERS5_S7_ENK3$_0clEvENKUlvE0_clEvENKUllE_clEl.exit"
  %.014 = phi i64 [ %16, %.lr.ph ], [ %65, %"_ZZZZN6open3d1t8geometry6kernel10pointcloud37OrientNormalsTowardsCameraLocationCPUERKNS_4core6TensorERS5_S7_ENK3$_0clEvENKUlvE0_clEvENKUllE_clEl.exit" ]
  %25 = mul nsw i64 %.014, 3
  %26 = getelementptr inbounds double, ptr %17, i64 %25
  %27 = getelementptr inbounds double, ptr %19, i64 %25
  %28 = load double, ptr %21, align 8, !tbaa !132
  %29 = load double, ptr %27, align 8, !tbaa !132
  %30 = fsub double %28, %29
  %31 = load double, ptr %22, align 8, !tbaa !132
  %32 = getelementptr inbounds nuw i8, ptr %27, i64 8
  %33 = load double, ptr %32, align 8, !tbaa !132
  %34 = fsub double %31, %33
  %35 = load double, ptr %23, align 8, !tbaa !132
  %36 = getelementptr inbounds nuw i8, ptr %27, i64 16
  %37 = load double, ptr %36, align 8, !tbaa !132
  %38 = fsub double %35, %37
  %39 = load double, ptr %26, align 8, !tbaa !132
  %40 = getelementptr inbounds nuw i8, ptr %26, i64 8
  %41 = load double, ptr %40, align 8, !tbaa !132
  %42 = fmul double %41, %41
  %43 = call double @llvm.fmuladd.f64(double %39, double %39, double %42)
  %44 = getelementptr inbounds nuw i8, ptr %26, i64 16
  %45 = load double, ptr %44, align 8, !tbaa !132
  %46 = call double @llvm.fmuladd.f64(double %45, double %45, double %43)
  %47 = fcmp oeq double %46, 0.000000e+00
  br i1 %47, label %48, label %56

48:                                               ; preds = %24
  %49 = fmul double %34, %34
  %50 = call double @llvm.fmuladd.f64(double %30, double %30, double %49)
  %51 = call double @llvm.fmuladd.f64(double %38, double %38, double %50)
  %52 = fcmp oeq double %51, 0.000000e+00
  %sqrt39.i = call double @llvm.sqrt.f64(double %51)
  %53 = fdiv double %30, %sqrt39.i
  %54 = fdiv double %34, %sqrt39.i
  %55 = fdiv double %38, %sqrt39.i
  %.sink40.i = select i1 %52, double 0.000000e+00, double %53
  %.sink.i = select i1 %52, double 0.000000e+00, double %54
  %storemerge.i = select i1 %52, double 1.000000e+00, double %55
  store double %.sink40.i, ptr %26, align 8, !tbaa !132
  store double %.sink.i, ptr %40, align 8, !tbaa !132
  br label %.sink.split.i

56:                                               ; preds = %24
  %57 = fmul double %34, %41
  %58 = call double @llvm.fmuladd.f64(double %39, double %30, double %57)
  %59 = call noundef double @llvm.fmuladd.f64(double %45, double %38, double %58)
  %60 = fcmp olt double %59, 0.000000e+00
  br i1 %60, label %61, label %"_ZZZZN6open3d1t8geometry6kernel10pointcloud37OrientNormalsTowardsCameraLocationCPUERKNS_4core6TensorERS5_S7_ENK3$_0clEvENKUlvE0_clEvENKUllE_clEl.exit"

61:                                               ; preds = %56
  %62 = fneg double %39
  store double %62, ptr %26, align 8, !tbaa !132
  %63 = fneg double %41
  store double %63, ptr %40, align 8, !tbaa !132
  %64 = fneg double %45
  br label %.sink.split.i

.sink.split.i:                                    ; preds = %61, %48
  %.sink41.i = phi double [ %64, %61 ], [ %storemerge.i, %48 ]
  store double %.sink41.i, ptr %44, align 8, !tbaa !132
  br label %"_ZZZZN6open3d1t8geometry6kernel10pointcloud37OrientNormalsTowardsCameraLocationCPUERKNS_4core6TensorERS5_S7_ENK3$_0clEvENKUlvE0_clEvENKUllE_clEl.exit"

"_ZZZZN6open3d1t8geometry6kernel10pointcloud37OrientNormalsTowardsCameraLocationCPUERKNS_4core6TensorERS5_S7_ENK3$_0clEvENKUlvE0_clEvENKUllE_clEl.exit": ; preds = %56, %.sink.split.i
  %65 = add i64 %.014, 1
  %exitcond.not = icmp eq i64 %.014, %15
  br i1 %exitcond.not, label %._crit_edge, label %24

._crit_edge:                                      ; preds = %"_ZZZZN6open3d1t8geometry6kernel10pointcloud37OrientNormalsTowardsCameraLocationCPUERKNS_4core6TensorERS5_S7_ENK3$_0clEvENKUlvE0_clEvENKUllE_clEl.exit", %11
  call void @__kmpc_for_static_fini(ptr nonnull @1, i32 %13)
  call void @llvm.lifetime.end.p0(i64 4, ptr nonnull %8) #26
  call void @llvm.lifetime.end.p0(i64 8, ptr nonnull %7) #26
  call void @llvm.lifetime.end.p0(i64 8, ptr nonnull %6) #26
  call void @llvm.lifetime.end.p0(i64 8, ptr nonnull %5) #26
  br label %66

66:                                               ; preds = %._crit_edge, %4
  ret void
}